; Function Attrs: mustprogress uwtable
define dso_local void @_ZN4Luau7CodeGen3X6418AssemblyBuilderX6423placeBinaryRegAndRegMemENS1_10OperandX64ES3_hh(ptr noundef nonnull align 8 dereferenceable(252) %0, i64 %1, i64 %2, i8 noundef zeroext %3, i8 noundef zeroext %4) local_unnamed_addr #0 align 2 {
  %.sroa.2.0.extract.shift = lshr i64 %1, 16
  %.sroa.2.0.extract.trunc = trunc i64 %.sroa.2.0.extract.shift to i8
  %6 = and i8 %.sroa.2.0.extract.trunc, 7
  %7 = icmp eq i8 %6, 2
  br i1 %7, label %8, label %12

8:                                                ; preds = %5
  %9 = getelementptr inbounds nuw i8, ptr %0, i64 232
  %10 = load ptr, ptr %9, align 8, !tbaa !51
  %11 = getelementptr inbounds nuw i8, ptr %10, i64 1
  store ptr %11, ptr %9, align 8, !tbaa !51
  store i8 102, ptr %10, align 1, !tbaa !13
  br label %12

12:                                               ; preds = %8, %5
  %13 = icmp eq i8 %6, 4
  %14 = icmp eq i8 %6, 1
  %15 = icmp ugt i8 %.sroa.2.0.extract.trunc, 31
  %16 = and i1 %15, %14
  %17 = or i1 %13, %16
  %18 = select i1 %17, i32 8, i32 0
  %19 = and i64 %2, 255
  %20 = icmp eq i64 %19, 2
  br i1 %20, label %21, label %26

21:                                               ; preds = %12
  %22 = lshr i8 %.sroa.2.0.extract.trunc, 6
  %23 = and i8 %22, 1
  %24 = trunc nuw nsw i32 %18 to i8
  %25 = or disjoint i8 %23, %24
  br label %39

26:                                               ; preds = %12
  %27 = lshr i8 %.sroa.2.0.extract.trunc, 4
  %28 = and i8 %27, 4
  %29 = zext nneg i8 %28 to i32
  %30 = trunc i64 %2 to i32
  %31 = lshr i32 %30, 13
  %32 = and i32 %31, 2
  %33 = lshr i32 %30, 22
  %34 = and i32 %33, 1
  %35 = or disjoint i32 %34, %32
  %36 = or disjoint i32 %35, %29
  %37 = or disjoint i32 %36, %18
  %38 = trunc nuw nsw i32 %37 to i8
  br label %39

39:                                               ; preds = %26, %21
  %.0.i = phi i8 [ %25, %21 ], [ %38, %26 ]
  %.not.i = icmp eq i8 %.0.i, 0
  br i1 %.not.i, label %_ZN4Luau7CodeGen3X6418AssemblyBuilderX648placeRexENS1_11RegisterX64ENS1_10OperandX64E.exit, label %40

40:                                               ; preds = %39
  %41 = or i8 %.0.i, 64
  %42 = getelementptr inbounds nuw i8, ptr %0, i64 232
  %43 = load ptr, ptr %42, align 8, !tbaa !51
  %44 = getelementptr inbounds nuw i8, ptr %43, i64 1
  store ptr %44, ptr %42, align 8, !tbaa !51
  store i8 %41, ptr %43, align 1, !tbaa !13
  br label %_ZN4Luau7CodeGen3X6418AssemblyBuilderX648placeRexENS1_11RegisterX64ENS1_10OperandX64E.exit

_ZN4Luau7CodeGen3X6418AssemblyBuilderX648placeRexENS1_11RegisterX64ENS1_10OperandX64E.exit: ; preds = %39, %40
  %45 = select i1 %14, i8 %3, i8 %4
  %46 = getelementptr inbounds nuw i8, ptr %0, i64 232
  %47 = load ptr, ptr %46, align 8, !tbaa !51
  %48 = getelementptr inbounds nuw i8, ptr %47, i64 1
  store ptr %48, ptr %46, align 8, !tbaa !51
  store i8 %45, ptr %47, align 1, !tbaa !13
  %sum.shift.i = lshr i64 %1, 19
  %49 = trunc i64 %sum.shift.i to i8
  %50 = and i8 %49, 31
  tail call void @_ZN4Luau7CodeGen3X6418AssemblyBuilderX6414placeModRegMemENS1_10OperandX64Ehi(ptr noundef nonnull align 8 dereferenceable(252) %0, i64 %2, i8 noundef zeroext %50, i32 noundef 0)
  %51 = getelementptr inbounds nuw i8, ptr %0, i64 248
  %52 = load i32, ptr %51, align 8, !tbaa !63
  %53 = add i32 %52, 1
  store i32 %53, ptr %51, align 8, !tbaa !63
  %54 = getelementptr inbounds nuw i8, ptr %0, i64 240
  %55 = load ptr, ptr %54, align 8, !tbaa !52
  %56 = load ptr, ptr %46, align 8, !tbaa !51
  %57 = ptrtoint ptr %55 to i64
  %58 = ptrtoint ptr %56 to i64
  %59 = sub i64 %57, %58
  %60 = and i64 %59, 4294967280
  %61 = icmp eq i64 %60, 0
  br i1 %61, label %62, label %_ZN4Luau7CodeGen3X6418AssemblyBuilderX646commitEv.exit

62:                                               ; preds = %_ZN4Luau7CodeGen3X6418AssemblyBuilderX648placeRexENS1_11RegisterX64ENS1_10OperandX64E.exit
  tail call void @_ZN4Luau7CodeGen3X6418AssemblyBuilderX646extendEv(ptr noundef nonnull align 8 dereferenceable(252) %0)
  br label %_ZN4Luau7CodeGen3X6418AssemblyBuilderX646commitEv.exit

_ZN4Luau7CodeGen3X6418AssemblyBuilderX646commitEv.exit: ; preds = %_ZN4Luau7CodeGen3X6418AssemblyBuilderX648placeRexENS1_11RegisterX64ENS1_10OperandX64E.exit, %62
  ret void
}